; Function Attrs: mustprogress nounwind uwtable
define hidden noundef zeroext i1 @_ZNK12ConstantPool8on_stackEv(ptr nocapture noundef nonnull readonly align 8 dereferenceable(68) %0) unnamed_addr #0 align 2 {
  %2 = getelementptr inbounds i8, ptr %0, i64 56
  %3 = load i16, ptr %2, align 8
  %4 = and i16 %3, 2
  %.not = icmp eq i16 %4, 0
  br i1 %.not, label %5, label %_ZNK12ConstantPool17is_maybe_on_stackEv.exit

5:                                                ; preds = %1
  %6 = getelementptr inbounds i8, ptr %0, i64 16
  %7 = load ptr, ptr %6, align 8
  %8 = icmp eq ptr %7, null
  br i1 %8, label %_ZNK12ConstantPool17is_maybe_on_stackEv.exit, label %9

9:                                                ; preds = %5
  %10 = tail call noundef zeroext i1 @_ZN13Continuations7enabledEv() #17
  br i1 %10, label %11, label %_ZNK12ConstantPool17is_maybe_on_stackEv.exit

11:                                               ; preds = %9
  %12 = load ptr, ptr %6, align 8
  %13 = getelementptr inbounds i8, ptr %12, i64 32
  %14 = load i64, ptr %13, align 8
  %15 = tail call noundef i64 @_ZN9CodeCache35previous_completed_gc_marking_cycleEv() #17
  %16 = icmp uge i64 %14, %15
  br label %_ZNK12ConstantPool17is_maybe_on_stackEv.exit

_ZNK12ConstantPool17is_maybe_on_stackEv.exit:     ; preds = %11, %9, %5, %1
  %.0 = phi i1 [ true, %1 ], [ false, %5 ], [ %16, %11 ], [ false, %9 ]
  ret i1 %.0
}